; Function Attrs: nounwind sspstrong uwtable
define dso_local i64 @rb_execarg_new(i32 noundef %0, ptr noundef readonly captures(none) %1, i32 noundef %2, i32 noundef %3) local_unnamed_addr #1 {
  %5 = tail call i64 @rb_data_typed_object_zalloc(i64 noundef 0, i64 noundef 176, ptr noundef nonnull @exec_arg_data_type) #27
  %6 = inttoptr i64 %5 to ptr
  %7 = getelementptr inbounds nuw i8, ptr %6, i64 24
  %8 = load i64, ptr %7, align 8, !tbaa !44
  %9 = and i64 %8, 2
  %.not.i = icmp eq i64 %9, 0
  %10 = getelementptr i8, ptr %6, i64 32
  br i1 %.not.i, label %11, label %RTYPEDDATA_GET_DATA.exit

11:                                               ; preds = %4
  %12 = load ptr, ptr %10, align 8, !tbaa !48
  br label %RTYPEDDATA_GET_DATA.exit

RTYPEDDATA_GET_DATA.exit:                         ; preds = %4, %11
  %13 = phi ptr [ %12, %11 ], [ %10, %4 ]
  tail call fastcc void @rb_execarg_init(i32 noundef %0, ptr noundef %1, i32 noundef %2, i64 noundef %5)
  %.not = icmp eq i32 %3, 0
  br i1 %.not, label %14, label %20

14:                                               ; preds = %RTYPEDDATA_GET_DATA.exit
  %15 = getelementptr inbounds nuw i8, ptr %13, i64 64
  %16 = load i16, ptr %15, align 8
  %17 = and i16 %16, 8192
  %.not9 = icmp eq i16 %17, 0
  br i1 %.not9, label %20, label %18

18:                                               ; preds = %14
  %19 = load i64, ptr @rb_eArgError, align 8, !tbaa !43
  tail call void (i64, ptr, ...) @rb_raise(i64 noundef %19, ptr noundef nonnull @.str.12) #29
  unreachable

20:                                               ; preds = %14, %RTYPEDDATA_GET_DATA.exit
  ret i64 %5
}